; Function Attrs: mustprogress uwtable
define internal void @_ZL24onc_rpc_count_proceduresPKc6ftenumPvS2_S2_(ptr nocapture readnone %0, i32 %1, ptr nocapture noundef readonly %2, ptr nocapture readnone %3, ptr noundef %4) #0 {
  %.not = icmp eq ptr %4, null
  br i1 %.not, label %12, label %6

6:                                                ; preds = %5
  %7 = load i32, ptr %2, align 4
  %8 = getelementptr inbounds i8, ptr %2, i64 4
  %9 = load i32, ptr %8, align 4
  %10 = getelementptr inbounds i8, ptr %2, i64 8
  %11 = load i32, ptr %10, align 4
  tail call void @_ZN28RpcServiceResponseTimeDialog26updateOncRpcProcedureCountEjji(ptr noundef nonnull align 8 dereferenceable(316) %4, i32 noundef %7, i32 noundef %9, i32 noundef %11)
  br label %12

12:                                               ; preds = %5, %6
  ret void
}